target datalayout = "e-m:e-p270:32:32-p271:32:32-p272:64:64-i64:64-i128:128-f80:128-n8:16:32:64-S128"
target triple = "x86_64-unknown-linux-gnu"

%"class.icu_75::CurrencyPluralInfo" = type <{ %"class.icu_75::UObject", ptr, ptr, ptr, i32, [4 x i8] }>
%"class.icu_75::UObject" = type { ptr }

@_ZTVN6icu_7518CurrencyPluralInfoE = unnamed_addr constant { [5 x ptr] } { [5 x ptr] [ptr null, ptr @_ZTIN6icu_7518CurrencyPluralInfoE, ptr @_ZN6icu_7518CurrencyPluralInfoD1Ev, ptr @_ZN6icu_7518CurrencyPluralInfoD0Ev, ptr @_ZNK6icu_7518CurrencyPluralInfo17getDynamicClassIDEv] }, align 8

; Function Attrs: mustprogress nounwind uwtable
define void @_ZN6icu_7518CurrencyPluralInfoD2Ev(ptr noundef nonnull align 8 dereferenceable(36) %this) unnamed_addr #0 align 2 personality ptr @__gxx_personality_v0 {
entry:
  %this.addr = alloca ptr, align 8
  store ptr %this, ptr %this.addr, align 8
  %this1 = load ptr, ptr %this.addr, align 8
  store ptr getelementptr inbounds ({ [5 x ptr] }, ptr @_ZTVN6icu_7518CurrencyPluralInfoE, i32 0, i32 0, i32 2), ptr %this1, align 8
  %fPluralCountToCurrencyUnitPattern = getelementptr inbounds %"class.icu_75::CurrencyPluralInfo", ptr %this1, i32 0, i32 1
  %0 = load ptr, ptr %fPluralCountToCurrencyUnitPattern, align 8
  invoke void @_ZN6icu_7518CurrencyPluralInfo10deleteHashEPNS_9HashtableE(ptr noundef nonnull align 8 dereferenceable(36) %this1, ptr noundef %0)
          to label %invoke.cont unwind label %terminate.lpad

invoke.cont:                                      ; preds = %entry
  %fPluralCountToCurrencyUnitPattern2 = getelementptr inbounds %"class.icu_75::CurrencyPluralInfo", ptr %this1, i32 0, i32 1
  store ptr null, ptr %fPluralCountToCurrencyUnitPattern2, align 8
  %fPluralRules = getelementptr inbounds %"class.icu_75::CurrencyPluralInfo", ptr %this1, i32 0, i32 2
  %1 = load ptr, ptr %fPluralRules, align 8
  %isnull = icmp eq ptr %1, null
  br i1 %isnull, label %delete.end, label %delete.notnull

delete.notnull:                                   ; preds = %invoke.cont
  %vtable = load ptr, ptr %1, align 8
  %vfn = getelementptr inbounds ptr, ptr %vtable, i64 1
  %2 = load ptr, ptr %vfn, align 8
  call void %2(ptr noundef nonnull align 8 dereferenceable(28) %1) #7
  br label %delete.end

delete.end:                                       ; preds = %delete.notnull, %invoke.cont
  %fLocale = getelementptr inbounds %"class.icu_75::CurrencyPluralInfo", ptr %this1, i32 0, i32 3
  %3 = load ptr, ptr %fLocale, align 8
  %isnull3 = icmp eq ptr %3, null
  br i1 %isnull3, label %delete.end7, label %delete.notnull4

delete.notnull4:                                  ; preds = %delete.end
  %vtable5 = load ptr, ptr %3, align 8
  %vfn6 = getelementptr inbounds ptr, ptr %vtable5, i64 1
  %4 = load ptr, ptr %vfn6, align 8
  call void %4(ptr noundef nonnull align 8 dereferenceable(217) %3) #7
  br label %delete.end7

delete.end7:                                      ; preds = %delete.notnull4, %delete.end
  %fPluralRules8 = getelementptr inbounds %"class.icu_75::CurrencyPluralInfo", ptr %this1, i32 0, i32 2
  store ptr null, ptr %fPluralRules8, align 8
  %fLocale9 = getelementptr inbounds %"class.icu_75::CurrencyPluralInfo", ptr %this1, i32 0, i32 3
  store ptr null, ptr %fLocale9, align 8
  call void @_ZN6icu_757UObjectD2Ev(ptr noundef nonnull align 8 dereferenceable(8) %this1) #7
  ret void

terminate.lpad:                                   ; preds = %entry
  %5 = landingpad { ptr, i32 }
          catch ptr null
  %6 = extractvalue { ptr, i32 } %5, 0
  call void @__clang_call_terminate(ptr %6) #8
  unreachable
}