; Function Attrs: mustprogress nounwind uwtable
define void @_ZN6icu_7518CurrencyPluralInfoD2Ev(ptr noundef nonnull align 8 dereferenceable(36) %this) unnamed_addr #4 align 2 personality ptr @__gxx_personality_v0 {
entry:
  store ptr getelementptr inbounds ({ [5 x ptr] }, ptr @_ZTVN6icu_7518CurrencyPluralInfoE, i64 0, i32 0, i64 2), ptr %this, align 8
  %fPluralCountToCurrencyUnitPattern = getelementptr inbounds i8, ptr %this, i64 8
  %0 = load ptr, ptr %fPluralCountToCurrencyUnitPattern, align 8
  invoke void @_ZN6icu_7518CurrencyPluralInfo10deleteHashEPNS_9HashtableE(ptr nonnull align 8 poison, ptr noundef %0)
          to label %invoke.cont unwind label %terminate.lpad

invoke.cont:                                      ; preds = %entry
  store ptr null, ptr %fPluralCountToCurrencyUnitPattern, align 8
  %fPluralRules = getelementptr inbounds i8, ptr %this, i64 16
  %1 = load ptr, ptr %fPluralRules, align 8
  %isnull = icmp eq ptr %1, null
  br i1 %isnull, label %delete.end, label %delete.notnull

delete.notnull:                                   ; preds = %invoke.cont
  %vtable = load ptr, ptr %1, align 8
  %vfn = getelementptr inbounds i8, ptr %vtable, i64 8
  %2 = load ptr, ptr %vfn, align 8
  tail call void %2(ptr noundef nonnull align 8 dereferenceable(28) %1) #10
  br label %delete.end

delete.end:                                       ; preds = %delete.notnull, %invoke.cont
  %fLocale = getelementptr inbounds i8, ptr %this, i64 24
  %3 = load ptr, ptr %fLocale, align 8
  %isnull3 = icmp eq ptr %3, null
  br i1 %isnull3, label %delete.end7, label %delete.notnull4

delete.notnull4:                                  ; preds = %delete.end
  %vtable5 = load ptr, ptr %3, align 8
  %vfn6 = getelementptr inbounds i8, ptr %vtable5, i64 8
  %4 = load ptr, ptr %vfn6, align 8
  tail call void %4(ptr noundef nonnull align 8 dereferenceable(217) %3) #10
  br label %delete.end7

delete.end7:                                      ; preds = %delete.notnull4, %delete.end
  tail call void @llvm.memset.p0.i64(ptr noundef nonnull align 8 dereferenceable(16) %fPluralRules, i8 0, i64 16, i1 false)
  tail call void @_ZN6icu_757UObjectD2Ev(ptr noundef nonnull align 8 dereferenceable(8) %this) #10
  ret void

terminate.lpad:                                   ; preds = %entry
  %5 = landingpad { ptr, i32 }
          catch ptr null
  %6 = extractvalue { ptr, i32 } %5, 0
  tail call void @__clang_call_terminate(ptr %6) #11
  unreachable
}